; Function Attrs: mustprogress nofree norecurse nosync nounwind willreturn memory(argmem: readwrite) uwtable
define hidden void @_ZN10MarkBitMap10initializeE9MemRegionS0_(ptr nocapture noundef nonnull align 8 dereferenceable(48) %0, ptr %1, i64 %2, ptr %3, i64 %4) local_unnamed_addr #3 align 2 {
  %6 = getelementptr inbounds i8, ptr %0, i64 8
  store ptr %1, ptr %6, align 8
  %.sroa.2.0..sroa_idx = getelementptr inbounds i8, ptr %0, i64 16
  store i64 %2, ptr %.sroa.2.0..sroa_idx, align 8
  %7 = getelementptr inbounds i8, ptr %0, i64 24
  %8 = load i32, ptr %7, align 8
  %9 = zext nneg i32 %8 to i64
  %10 = lshr i64 %2, %9
  %11 = getelementptr inbounds i8, ptr %0, i64 32
  store ptr %3, ptr %11, align 8
  %.sroa.2.0..sroa_idx1 = getelementptr inbounds i8, ptr %0, i64 40
  store i64 %10, ptr %.sroa.2.0..sroa_idx1, align 8
  ret void
}